---
triple:          'arm64-apple-darwin'
binary-path:     "/Users/chenhaihong/Documents/GitHub/SYSU_ISE_garbage/大二/大二上/数据结构与算法/NEWYEAR/costkmst"
relocations:
  - { offsetInCU: 0x3F, offset: 0x3F, size: 0x8, addend: 0x0, symName: _n, symObjAddr: 0x2184C, symBinAddr: 0x10000C000, symSize: 0x0 }
  - { offsetInCU: 0x5B, offset: 0x5B, size: 0x8, addend: 0x0, symName: _k, symObjAddr: 0x21850, symBinAddr: 0x10000C004, symSize: 0x0 }
  - { offsetInCU: 0x70, offset: 0x70, size: 0x8, addend: 0x0, symName: _c, symObjAddr: 0x21854, symBinAddr: 0x10000C008, symSize: 0x0 }
  - { offsetInCU: 0xA0, offset: 0xA0, size: 0x8, addend: 0x0, symName: _edges, symObjAddr: 0x3F2154, symBinAddr: 0x1003DC908, symSize: 0x0 }
  - { offsetInCU: 0x120, offset: 0x120, size: 0x8, addend: 0x0, symName: _edgeCount, symObjAddr: 0xF63C54, symBinAddr: 0x100F4E408, symSize: 0x0 }
  - { offsetInCU: 0x135, offset: 0x135, size: 0x8, addend: 0x0, symName: _parent, symObjAddr: 0xF63C58, symBinAddr: 0x100F4E40C, symSize: 0x0 }
  - { offsetInCU: 0x157, offset: 0x157, size: 0x8, addend: 0x0, symName: _treeSize, symObjAddr: 0xF64BF8, symBinAddr: 0x100F4F3AC, symSize: 0x0 }
  - { offsetInCU: 0x16C, offset: 0x16C, size: 0x8, addend: 0x0, symName: _result, symObjAddr: 0xF65B98, symBinAddr: 0x100F5034C, symSize: 0x0 }
  - { offsetInCU: 0x18E, offset: 0x18E, size: 0x8, addend: 0x0, symName: _resultCount, symObjAddr: 0xF68A78, symBinAddr: 0x100F5322C, symSize: 0x0 }
  - { offsetInCU: 0x2EF4, offset: 0x2EF4, size: 0x8, addend: 0x0, symName: __ZNSt3__111__sift_downB8ue170006INS_17_ClassicAlgPolicyERPFbRK4EdgeS4_EPS2_EEvT1_OT0_NS_15iterator_traitsIS9_E15difference_typeES9_, symObjAddr: 0xF60, symBinAddr: 0x100004914, symSize: 0x244 }
  - { offsetInCU: 0x2FCD, offset: 0x2FCD, size: 0x8, addend: 0x0, symName: __ZNSt3__117__floyd_sift_downB8ue170006INS_17_ClassicAlgPolicyERPFbRK4EdgeS4_EPS2_EET1_S9_OT0_NS_15iterator_traitsIS9_E15difference_typeE, symObjAddr: 0x140C, symBinAddr: 0x100004DC0, symSize: 0x114 }
  - { offsetInCU: 0x3065, offset: 0x3065, size: 0x8, addend: 0x0, symName: __ZNSt3__111__introsortINS_17_ClassicAlgPolicyERPFbRK4EdgeS4_EPS2_Lb0EEEvT1_S9_T0_NS_15iterator_traitsIS9_E15difference_typeEb, symObjAddr: 0x16F8, symBinAddr: 0x1000050AC, symSize: 0x480 }
  - { offsetInCU: 0x3190, offset: 0x3190, size: 0x8, addend: 0x0, symName: __ZNSt3__126__insertion_sort_unguardedB8ue170006INS_17_ClassicAlgPolicyERPFbRK4EdgeS4_EPS2_EEvT1_S9_T0_, symObjAddr: 0x1DE8, symBinAddr: 0x10000579C, symSize: 0x140 }
  - { offsetInCU: 0x3280, offset: 0x3280, size: 0x8, addend: 0x0, symName: __ZNSt3__131__partition_with_equals_on_leftB8ue170006INS_17_ClassicAlgPolicyEP4EdgeRPFbRKS2_S5_EEET0_S9_S9_T1_, symObjAddr: 0x2148, symBinAddr: 0x100005AFC, symSize: 0x240 }
  - { offsetInCU: 0x333B, offset: 0x333B, size: 0x8, addend: 0x0, symName: __ZNSt3__118__bitset_partitionB8ue170006INS_17_ClassicAlgPolicyEP4EdgeRPFbRKS2_S5_EEENS_4pairIT0_bEESA_SA_T1_, symObjAddr: 0x2388, symBinAddr: 0x100005D3C, symSize: 0x358 }
  - { offsetInCU: 0x3436, offset: 0x3436, size: 0x8, addend: 0x0, symName: __ZNSt3__124__swap_bitmap_pos_withinB8ue170006INS_17_ClassicAlgPolicyEP4EdgeEEvRT0_S5_RyS6_, symObjAddr: 0x3370, symBinAddr: 0x100006D24, symSize: 0x1E8 }
  - { offsetInCU: 0x3503, offset: 0x3503, size: 0x8, addend: 0x0, symName: __ZNSt3__132__partition_with_equals_on_rightB8ue170006INS_17_ClassicAlgPolicyEP4EdgeRPFbRKS2_S5_EEENS_4pairIT0_bEESA_SA_T1_, symObjAddr: 0x26E0, symBinAddr: 0x100006094, symSize: 0x248 }
  - { offsetInCU: 0x35CD, offset: 0x35CD, size: 0x8, addend: 0x0, symName: __ZNSt3__127__insertion_sort_incompleteB8ue170006INS_17_ClassicAlgPolicyERPFbRK4EdgeS4_EPS2_EEbT1_S9_T0_, symObjAddr: 0x2928, symBinAddr: 0x1000062DC, symSize: 0x328 }
  - { offsetInCU: 0x36C2, offset: 0x36C2, size: 0x8, addend: 0x0, symName: __ZNSt3__124__put_character_sequenceB8ue170006IcNS_11char_traitsIcEEEERNS_13basic_ostreamIT_T0_EES7_PKS4_m, symObjAddr: 0x36A0, symBinAddr: 0x100007054, symSize: 0x1F4 }
  - { offsetInCU: 0x500F, offset: 0x500F, size: 0x8, addend: 0x0, symName: __ZNSt3__14sortB8ue170006IP4EdgePFbRKS1_S4_EEEvT_S7_T0_, symObjAddr: 0xA60, symBinAddr: 0x100004414, symSize: 0x38 }
  - { offsetInCU: 0x5069, offset: 0x5069, size: 0x8, addend: 0x0, symName: __ZNSt3__1lsB8ue170006INS_11char_traitsIcEEEERNS_13basic_ostreamIcT_EES6_PKc, symObjAddr: 0xA98, symBinAddr: 0x10000444C, symSize: 0x48 }
  - { offsetInCU: 0x50AF, offset: 0x50AF, size: 0x8, addend: 0x0, symName: __ZNSt3__111__sort_implB8ue170006INS_17_ClassicAlgPolicyEP4EdgePFbRKS2_S5_EEEvT0_S8_RT1_, symObjAddr: 0xB2C, symBinAddr: 0x1000044E0, symSize: 0xC0 }
  - { offsetInCU: 0x5112, offset: 0x5112, size: 0x8, addend: 0x0, symName: __ZNSt3__123__debug_randomize_rangeB8ue170006INS_17_ClassicAlgPolicyEP4EdgeS3_EEvT0_T1_, symObjAddr: 0xBEC, symBinAddr: 0x1000045A0, symSize: 0x14 }
  - { offsetInCU: 0x5163, offset: 0x5163, size: 0x8, addend: 0x0, symName: __ZNSt3__130__libcpp_is_constant_evaluatedB8ue170006Ev, symObjAddr: 0xC00, symBinAddr: 0x1000045B4, symSize: 0xC }
  - { offsetInCU: 0x5180, offset: 0x5180, size: 0x8, addend: 0x0, symName: __ZNSt3__114__partial_sortB8ue170006INS_17_ClassicAlgPolicyEPFbRK4EdgeS4_EPS2_S7_EET1_S8_S8_T2_RT0_, symObjAddr: 0xC0C, symBinAddr: 0x1000045C0, symSize: 0x94 }
  - { offsetInCU: 0x5208, offset: 0x5208, size: 0x8, addend: 0x0, symName: __ZNSt3__113__unwrap_iterB8ue170006IP4EdgeNS_18__unwrap_iter_implIS2_Lb1EEELi0EEEDTclsrT0_8__unwrapclsr3stdE7declvalIT_EEEES6_, symObjAddr: 0xCA0, symBinAddr: 0x100004654, symSize: 0x24 }
  - { offsetInCU: 0x524C, offset: 0x524C, size: 0x8, addend: 0x0, symName: __ZNSt3__115__sort_dispatchB8ue170006INS_17_ClassicAlgPolicyEP4EdgePFbRKS2_S5_EEEvT0_S8_RT1_, symObjAddr: 0xCC4, symBinAddr: 0x100004678, symSize: 0x64 }
  - { offsetInCU: 0x52CA, offset: 0x52CA, size: 0x8, addend: 0x0, symName: __ZNSt3__135__check_strict_weak_ordering_sortedB8ue170006IP4EdgePFbRKS1_S4_EEEvT_S7_RT0_, symObjAddr: 0xD28, symBinAddr: 0x1000046DC, symSize: 0x18 }
  - { offsetInCU: 0x540A, offset: 0x540A, size: 0x8, addend: 0x0, symName: __ZNSt3__119__partial_sort_implB8ue170006INS_17_ClassicAlgPolicyERPFbRK4EdgeS4_EPS2_S8_EET1_S9_S9_T2_OT0_, symObjAddr: 0xD58, symBinAddr: 0x10000470C, symSize: 0x114 }
  - { offsetInCU: 0x54A0, offset: 0x54A0, size: 0x8, addend: 0x0, symName: __ZNSt3__111__make_heapB8ue170006INS_17_ClassicAlgPolicyERPFbRK4EdgeS4_EPS2_EEvT1_S9_OT0_, symObjAddr: 0xE6C, symBinAddr: 0x100004820, symSize: 0xC0 }
  - { offsetInCU: 0x5542, offset: 0x5542, size: 0x8, addend: 0x0, symName: __ZNSt3__111__sort_heapB8ue170006INS_17_ClassicAlgPolicyERPFbRK4EdgeS4_EPS2_EEvT1_S9_OT0_, symObjAddr: 0x11A4, symBinAddr: 0x100004B58, symSize: 0xA8 }
  - { offsetInCU: 0x55E4, offset: 0x55E4, size: 0x8, addend: 0x0, symName: __ZNSt3__19iter_swapB8ue170006IP4EdgeS2_EEvT_T0_, symObjAddr: 0x124C, symBinAddr: 0x100004C00, symSize: 0x2C }
  - { offsetInCU: 0x562C, offset: 0x562C, size: 0x8, addend: 0x0, symName: __ZNSt3__14swapB8ue170006I4EdgeEEvRT_S3_, symObjAddr: 0x1278, symBinAddr: 0x100004C2C, symSize: 0x54 }
  - { offsetInCU: 0x56A1, offset: 0x56A1, size: 0x8, addend: 0x0, symName: __ZNSt3__110__pop_heapB8ue170006INS_17_ClassicAlgPolicyEPFbRK4EdgeS4_EPS2_EEvT1_S8_RT0_NS_15iterator_traitsIS8_E15difference_typeE, symObjAddr: 0x12F8, symBinAddr: 0x100004CAC, symSize: 0x114 }
  - { offsetInCU: 0x5751, offset: 0x5751, size: 0x8, addend: 0x0, symName: __ZNSt3__19__sift_upB8ue170006INS_17_ClassicAlgPolicyERPFbRK4EdgeS4_EPS2_EEvT1_S9_OT0_NS_15iterator_traitsIS9_E15difference_typeE, symObjAddr: 0x1520, symBinAddr: 0x100004ED4, symSize: 0x14C }
  - { offsetInCU: 0x5854, offset: 0x5854, size: 0x8, addend: 0x0, symName: __ZNSt3__112__to_addressB8ue170006I4EdgeEEPT_S3_, symObjAddr: 0x1690, symBinAddr: 0x100005044, symSize: 0x14 }
  - { offsetInCU: 0x5889, offset: 0x5889, size: 0x8, addend: 0x0, symName: __ZNSt3__17__log2iB8ue170006IlEET_S1_, symObjAddr: 0x16A4, symBinAddr: 0x100005058, symSize: 0x54 }
  - { offsetInCU: 0x58C0, offset: 0x58C0, size: 0x8, addend: 0x0, symName: __ZNSt3__112__libcpp_clzB8ue170006Em, symObjAddr: 0x1B90, symBinAddr: 0x100005544, symSize: 0x1C }
  - { offsetInCU: 0x58EC, offset: 0x58EC, size: 0x8, addend: 0x0, symName: __ZNSt3__124__sort3_maybe_branchlessB8ue170006INS_17_ClassicAlgPolicyERPFbRK4EdgeS4_EPS2_EENS_9enable_ifIXntsr21__use_branchless_sortIT0_T1_EE5valueEvE4typeESB_SB_SB_SA_, symObjAddr: 0x1BAC, symBinAddr: 0x100005560, symSize: 0x3C }
  - { offsetInCU: 0x595D, offset: 0x595D, size: 0x8, addend: 0x0, symName: __ZNSt3__124__sort4_maybe_branchlessB8ue170006INS_17_ClassicAlgPolicyERPFbRK4EdgeS4_EPS2_EENS_9enable_ifIXntsr21__use_branchless_sortIT0_T1_EE5valueEvE4typeESB_SB_SB_SB_SA_, symObjAddr: 0x1BE8, symBinAddr: 0x10000559C, symSize: 0x44 }
  - { offsetInCU: 0x59DC, offset: 0x59DC, size: 0x8, addend: 0x0, symName: __ZNSt3__124__sort5_maybe_branchlessB8ue170006INS_17_ClassicAlgPolicyERPFbRK4EdgeS4_EPS2_EENS_9enable_ifIXntsr21__use_branchless_sortIT0_T1_EE5valueEvE4typeESB_SB_SB_SB_SB_SA_, symObjAddr: 0x1C2C, symBinAddr: 0x1000055E0, symSize: 0x4C }
  - { offsetInCU: 0x5A69, offset: 0x5A69, size: 0x8, addend: 0x0, symName: __ZNSt3__116__insertion_sortB8ue170006INS_17_ClassicAlgPolicyERPFbRK4EdgeS4_EPS2_EEvT1_S9_T0_, symObjAddr: 0x1C78, symBinAddr: 0x10000562C, symSize: 0x170 }
  - { offsetInCU: 0x5B2C, offset: 0x5B2C, size: 0x8, addend: 0x0, symName: __ZNSt3__114__partial_sortB8ue170006INS_17_ClassicAlgPolicyERPFbRK4EdgeS4_EPS2_S8_EET1_S9_S9_T2_RT0_, symObjAddr: 0x1F28, symBinAddr: 0x1000058DC, symSize: 0x94 }
  - { offsetInCU: 0x5BB4, offset: 0x5BB4, size: 0x8, addend: 0x0, symName: __ZNSt3__17__sort3B8ue170006INS_17_ClassicAlgPolicyERPFbRK4EdgeS4_EPS2_EEjT1_S9_S9_T0_, symObjAddr: 0x1FBC, symBinAddr: 0x100005970, symSize: 0x158 }
  - { offsetInCU: 0x5C33, offset: 0x5C33, size: 0x8, addend: 0x0, symName: __ZNSt3__17__sort4B8ue170006INS_17_ClassicAlgPolicyERPFbRK4EdgeS4_EPS2_EEvT1_S9_S9_S9_T0_, symObjAddr: 0x2C68, symBinAddr: 0x10000661C, symSize: 0xC4 }
  - { offsetInCU: 0x5CAE, offset: 0x5CAE, size: 0x8, addend: 0x0, symName: __ZNSt3__17__sort5B8ue170006INS_17_ClassicAlgPolicyERPFbRK4EdgeS4_EPS2_EEvT1_S9_S9_S9_S9_T0_, symObjAddr: 0x2D2C, symBinAddr: 0x1000066E0, symSize: 0xF8 }
  - { offsetInCU: 0x5D37, offset: 0x5D37, size: 0x8, addend: 0x0, symName: __ZNSt3__122__populate_left_bitsetB8ue170006IRPFbRK4EdgeS3_EPS1_S1_EEvT0_T_RT1_Ry, symObjAddr: 0x2E24, symBinAddr: 0x1000067D8, symSize: 0xAC }
  - { offsetInCU: 0x5DF2, offset: 0x5DF2, size: 0x8, addend: 0x0, symName: __ZNSt3__123__populate_right_bitsetB8ue170006IRPFbRK4EdgeS3_EPS1_S1_EEvT0_T_RT1_Ry, symObjAddr: 0x2ED0, symBinAddr: 0x100006884, symSize: 0xA4 }
  - { offsetInCU: 0x5EAD, offset: 0x5EAD, size: 0x8, addend: 0x0, symName: __ZNSt3__117__swap_bitmap_posB8ue170006INS_17_ClassicAlgPolicyEP4EdgeEEvT0_S4_RyS5_, symObjAddr: 0x2F74, symBinAddr: 0x100006928, symSize: 0x104 }
  - { offsetInCU: 0x5F4E, offset: 0x5F4E, size: 0x8, addend: 0x0, symName: __ZNSt3__133__bitset_partition_partial_blocksB8ue170006INS_17_ClassicAlgPolicyERPFbRK4EdgeS4_EPS2_S2_EEvRT1_SA_T0_RT2_RySE_, symObjAddr: 0x3078, symBinAddr: 0x100006A2C, symSize: 0x2F8 }
  - { offsetInCU: 0x60CF, offset: 0x60CF, size: 0x8, addend: 0x0, symName: __ZNSt3__19make_pairB8ue170006IRP4EdgeRbEENS_4pairINS_18__unwrap_ref_decayIT_E4typeENS6_IT0_E4typeEEEOS7_OSA_, symObjAddr: 0x3558, symBinAddr: 0x100006F0C, symSize: 0x38 }
  - { offsetInCU: 0x611E, offset: 0x611E, size: 0x8, addend: 0x0, symName: __ZNSt3__112__libcpp_ctzB8ue170006Ey, symObjAddr: 0x3590, symBinAddr: 0x100006F44, symSize: 0x20 }
  - { offsetInCU: 0x614A, offset: 0x614A, size: 0x8, addend: 0x0, symName: __ZNSt3__113__libcpp_blsrB8ue170006Ey, symObjAddr: 0x35B0, symBinAddr: 0x100006F64, symSize: 0x2C }
  - { offsetInCU: 0x6176, offset: 0x6176, size: 0x8, addend: 0x0, symName: __ZNSt3__112__libcpp_clzB8ue170006Ey, symObjAddr: 0x3610, symBinAddr: 0x100006FC4, symSize: 0x1C }
  - { offsetInCU: 0x624F, offset: 0x624F, size: 0x8, addend: 0x0, symName: __ZNSt3__116__pad_and_outputB8ue170006IcNS_11char_traitsIcEEEENS_19ostreambuf_iteratorIT_T0_EES6_PKS4_S8_S8_RNS_8ios_baseES4_, symObjAddr: 0x38F8, symBinAddr: 0x1000072AC, symSize: 0x248 }
  - { offsetInCU: 0x631E, offset: 0x631E, size: 0x8, addend: 0x0, symName: __ZNSt3__112__to_addressB8ue170006IKcEEPT_S3_, symObjAddr: 0x3E74, symBinAddr: 0x100007828, symSize: 0x14 }
  - { offsetInCU: 0x6386, offset: 0x6386, size: 0x8, addend: 0x0, symName: __ZNSt3__19use_facetB8ue170006INS_5ctypeIcEEEERKT_RKNS_6localeE, symObjAddr: 0x414C, symBinAddr: 0x100007B00, symSize: 0x2C }
  - { offsetInCU: 0x6853, offset: 0x6853, size: 0x8, addend: 0x0, symName: __ZNSt3__118__constexpr_strlenB8ue170006EPKc, symObjAddr: 0x41E4, symBinAddr: 0x100007B98, symSize: 0x24 }
  - { offsetInCU: 0x8E6A, offset: 0x8E6A, size: 0x8, addend: 0x0, symName: __ZN4EdgeC1Ev, symObjAddr: 0x0, symBinAddr: 0x1000039B4, symSize: 0x2C }
  - { offsetInCU: 0x8E91, offset: 0x8E91, size: 0x8, addend: 0x0, symName: __Z4findi, symObjAddr: 0x2C, symBinAddr: 0x1000039E0, symSize: 0x78 }
  - { offsetInCU: 0x8EBD, offset: 0x8EBD, size: 0x8, addend: 0x0, symName: __Z5uniteii, symObjAddr: 0xA4, symBinAddr: 0x100003A58, symSize: 0xF4 }
  - { offsetInCU: 0x8F0F, offset: 0x8F0F, size: 0x8, addend: 0x0, symName: __Z12compareEdgesRK4EdgeS1_, symObjAddr: 0x198, symBinAddr: 0x100003B4C, symSize: 0x30 }
  - { offsetInCU: 0x8F49, offset: 0x8F49, size: 0x8, addend: 0x0, symName: __Z7kruskalv, symObjAddr: 0x1C8, symBinAddr: 0x100003B7C, symSize: 0x1A4 }
  - { offsetInCU: 0x8FBB, offset: 0x8FBB, size: 0x8, addend: 0x0, symName: __Z11isConnectedv, symObjAddr: 0x36C, symBinAddr: 0x100003D20, symSize: 0xAC }
  - { offsetInCU: 0x9004, offset: 0x9004, size: 0x8, addend: 0x0, symName: _main, symObjAddr: 0x418, symBinAddr: 0x100003DCC, symSize: 0x604 }
  - { offsetInCU: 0x9175, offset: 0x9175, size: 0x8, addend: 0x0, symName: __ZN4EdgeC1Eiii, symObjAddr: 0xA1C, symBinAddr: 0x1000043D0, symSize: 0x44 }
  - { offsetInCU: 0x91C7, offset: 0x91C7, size: 0x8, addend: 0x0, symName: __ZN4EdgeC2Ev, symObjAddr: 0xAE0, symBinAddr: 0x100004494, symSize: 0x14 }
  - { offsetInCU: 0x91F0, offset: 0x91F0, size: 0x8, addend: 0x0, symName: __ZN4EdgeC2Eiii, symObjAddr: 0xAF4, symBinAddr: 0x1000044A8, symSize: 0x38 }
  - { offsetInCU: 0x9243, offset: 0x9243, size: 0x8, addend: 0x0, symName: __ZNSt3__18_IterOpsINS_17_ClassicAlgPolicyEE4nextB8ue170006IP4EdgeEET_S6_S6_, symObjAddr: 0xD40, symBinAddr: 0x1000046F4, symSize: 0x18 }
  - { offsetInCU: 0x927F, offset: 0x927F, size: 0x8, addend: 0x0, symName: __ZNSt3__18_IterOpsINS_17_ClassicAlgPolicyEE9iter_swapB8ue170006IRP4EdgeS6_EEvOT_OT0_, symObjAddr: 0xF2C, symBinAddr: 0x1000048E0, symSize: 0x34 }
  - { offsetInCU: 0x92C7, offset: 0x92C7, size: 0x8, addend: 0x0, symName: __ZNSt3__18_IterOpsINS_17_ClassicAlgPolicyEE11__iter_moveB8ue170006IRP4EdgeEENS_9enable_ifIXsr12is_referenceIDTdeclsr3stdE7declvalIRT_EEEEE5valueEDTclsr3stdE4movedeclsr3stdE7declvalIS9_EEEEE4typeEOS8_, symObjAddr: 0x12CC, symBinAddr: 0x100004C80, symSize: 0x28 }
  - { offsetInCU: 0x92F3, offset: 0x92F3, size: 0x8, addend: 0x0, symName: __ZNSt3__18_IterOpsINS_17_ClassicAlgPolicyEE25__validate_iter_referenceB8ue170006IRP4EdgeEEvv, symObjAddr: 0x12F4, symBinAddr: 0x100004CA8, symSize: 0x4 }
  - { offsetInCU: 0x9311, offset: 0x9311, size: 0x8, addend: 0x0, symName: __ZNSt3__118__unwrap_iter_implIP4EdgeLb1EE8__unwrapB8ue170006ES2_, symObjAddr: 0x166C, symBinAddr: 0x100005020, symSize: 0x24 }
  - { offsetInCU: 0x9339, offset: 0x9339, size: 0x8, addend: 0x0, symName: __ZNSt3__18_IterOpsINS_17_ClassicAlgPolicyEE9iter_swapB8ue170006IRP4EdgeS5_EEvOT_OT0_, symObjAddr: 0x2114, symBinAddr: 0x100005AC8, symSize: 0x34 }
  - { offsetInCU: 0x937C, offset: 0x937C, size: 0x8, addend: 0x0, symName: __ZNSt3__18_IterOpsINS_17_ClassicAlgPolicyEE9iter_swapB8ue170006IP4EdgeS5_EEvOT_OT0_, symObjAddr: 0x35DC, symBinAddr: 0x100006F90, symSize: 0x34 }
  - { offsetInCU: 0x93E7, offset: 0x93E7, size: 0x8, addend: 0x0, symName: __ZNSt3__14pairIP4EdgebEC1B8ue170006ERKS2_RKb, symObjAddr: 0x362C, symBinAddr: 0x100006FE0, symSize: 0x3C }
  - { offsetInCU: 0x942B, offset: 0x942B, size: 0x8, addend: 0x0, symName: __ZNSt3__14pairIP4EdgebEC2B8ue170006ERKS2_RKb, symObjAddr: 0x3668, symBinAddr: 0x10000701C, symSize: 0x38 }
  - { offsetInCU: 0x9470, offset: 0x9470, size: 0x8, addend: 0x0, symName: __ZNSt3__111char_traitsIcE6lengthB8ue170006EPKc, symObjAddr: 0x3894, symBinAddr: 0x100007248, symSize: 0x48 }
  - { offsetInCU: 0x94B1, offset: 0x94B1, size: 0x8, addend: 0x0, symName: __ZNKSt3__113basic_ostreamIcNS_11char_traitsIcEEE6sentrycvbB8ue170006Ev, symObjAddr: 0x38DC, symBinAddr: 0x100007290, symSize: 0x1C }
  - { offsetInCU: 0x94D6, offset: 0x94D6, size: 0x8, addend: 0x0, symName: __ZNSt3__119ostreambuf_iteratorIcNS_11char_traitsIcEEEC1B8ue170006ERNS_13basic_ostreamIcS2_EE, symObjAddr: 0x3B40, symBinAddr: 0x1000074F4, symSize: 0x34 }
  - { offsetInCU: 0x950C, offset: 0x950C, size: 0x8, addend: 0x0, symName: __ZNKSt3__18ios_base5flagsB8ue170006Ev, symObjAddr: 0x3B74, symBinAddr: 0x100007528, symSize: 0x18 }
  - { offsetInCU: 0x9533, offset: 0x9533, size: 0x8, addend: 0x0, symName: __ZNKSt3__19basic_iosIcNS_11char_traitsIcEEE4fillB8ue170006Ev, symObjAddr: 0x3B8C, symBinAddr: 0x100007540, symSize: 0x64 }
  - { offsetInCU: 0x955A, offset: 0x955A, size: 0x8, addend: 0x0, symName: __ZNKSt3__119ostreambuf_iteratorIcNS_11char_traitsIcEEE6failedB8ue170006Ev, symObjAddr: 0x3BF0, symBinAddr: 0x1000075A4, symSize: 0x24 }
  - { offsetInCU: 0x957F, offset: 0x957F, size: 0x8, addend: 0x0, symName: __ZNSt3__19basic_iosIcNS_11char_traitsIcEEE8setstateB8ue170006Ej, symObjAddr: 0x3C14, symBinAddr: 0x1000075C8, symSize: 0x2C }
  - { offsetInCU: 0x95B3, offset: 0x95B3, size: 0x8, addend: 0x0, symName: __ZNKSt3__18ios_base5widthB8ue170006Ev, symObjAddr: 0x3C4C, symBinAddr: 0x100007600, symSize: 0x18 }
  - { offsetInCU: 0x95DA, offset: 0x95DA, size: 0x8, addend: 0x0, symName: __ZNSt3__115basic_streambufIcNS_11char_traitsIcEEE5sputnB8ue170006EPKcl, symObjAddr: 0x3C64, symBinAddr: 0x100007618, symSize: 0x3C }
  - { offsetInCU: 0x961B, offset: 0x961B, size: 0x8, addend: 0x0, symName: __ZNSt3__112basic_stringIcNS_11char_traitsIcEENS_9allocatorIcEEEC1B8ue170006Emc, symObjAddr: 0x3CA0, symBinAddr: 0x100007654, symSize: 0x3C }
  - { offsetInCU: 0x9661, offset: 0x9661, size: 0x8, addend: 0x0, symName: __ZNKSt3__112basic_stringIcNS_11char_traitsIcEENS_9allocatorIcEEE4dataB8ue170006Ev, symObjAddr: 0x3CDC, symBinAddr: 0x100007690, symSize: 0x28 }
  - { offsetInCU: 0x9686, offset: 0x9686, size: 0x8, addend: 0x0, symName: __ZNSt3__18ios_base5widthB8ue170006El, symObjAddr: 0x3D04, symBinAddr: 0x1000076B8, symSize: 0x2C }
  - { offsetInCU: 0x96CB, offset: 0x96CB, size: 0x8, addend: 0x0, symName: __ZNSt3__112basic_stringIcNS_11char_traitsIcEENS_9allocatorIcEEEC2B8ue170006Emc, symObjAddr: 0x3D30, symBinAddr: 0x1000076E4, symSize: 0x4C }
  - { offsetInCU: 0x9716, offset: 0x9716, size: 0x8, addend: 0x0, symName: __ZNSt3__117__compressed_pairINS_12basic_stringIcNS_11char_traitsIcEENS_9allocatorIcEEE5__repES5_EC1B8ue170006INS_18__default_init_tagESA_EEOT_OT0_, symObjAddr: 0x3D7C, symBinAddr: 0x100007730, symSize: 0x3C }
  - { offsetInCU: 0x976C, offset: 0x976C, size: 0x8, addend: 0x0, symName: __ZNSt3__117__compressed_pairINS_12basic_stringIcNS_11char_traitsIcEENS_9allocatorIcEEE5__repES5_EC2B8ue170006INS_18__default_init_tagESA_EEOT_OT0_, symObjAddr: 0x3DB8, symBinAddr: 0x10000776C, symSize: 0x3C }
  - { offsetInCU: 0x97C2, offset: 0x97C2, size: 0x8, addend: 0x0, symName: __ZNSt3__122__compressed_pair_elemINS_12basic_stringIcNS_11char_traitsIcEENS_9allocatorIcEEE5__repELi0ELb0EEC2B8ue170006ENS_18__default_init_tagE, symObjAddr: 0x3DF4, symBinAddr: 0x1000077A8, symSize: 0x14 }
  - { offsetInCU: 0x97F6, offset: 0x97F6, size: 0x8, addend: 0x0, symName: __ZNSt3__122__compressed_pair_elemINS_9allocatorIcEELi1ELb1EEC2B8ue170006ENS_18__default_init_tagE, symObjAddr: 0x3E08, symBinAddr: 0x1000077BC, symSize: 0x2C }
  - { offsetInCU: 0x9829, offset: 0x9829, size: 0x8, addend: 0x0, symName: __ZNSt3__19allocatorIcEC2B8ue170006Ev, symObjAddr: 0x3E34, symBinAddr: 0x1000077E8, symSize: 0x2C }
  - { offsetInCU: 0x9851, offset: 0x9851, size: 0x8, addend: 0x0, symName: __ZNSt3__116__non_trivial_ifILb1ENS_9allocatorIcEEEC2B8ue170006Ev, symObjAddr: 0x3E60, symBinAddr: 0x100007814, symSize: 0x14 }
  - { offsetInCU: 0x987A, offset: 0x987A, size: 0x8, addend: 0x0, symName: __ZNKSt3__112basic_stringIcNS_11char_traitsIcEENS_9allocatorIcEEE13__get_pointerB8ue170006Ev, symObjAddr: 0x3E88, symBinAddr: 0x10000783C, symSize: 0x54 }
  - { offsetInCU: 0x989F, offset: 0x989F, size: 0x8, addend: 0x0, symName: __ZNKSt3__112basic_stringIcNS_11char_traitsIcEENS_9allocatorIcEEE9__is_longB8ue170006Ev, symObjAddr: 0x3EDC, symBinAddr: 0x100007890, symSize: 0x74 }
  - { offsetInCU: 0x98C4, offset: 0x98C4, size: 0x8, addend: 0x0, symName: __ZNKSt3__112basic_stringIcNS_11char_traitsIcEENS_9allocatorIcEEE18__get_long_pointerB8ue170006Ev, symObjAddr: 0x3F50, symBinAddr: 0x100007904, symSize: 0x28 }
  - { offsetInCU: 0x98E9, offset: 0x98E9, size: 0x8, addend: 0x0, symName: __ZNKSt3__112basic_stringIcNS_11char_traitsIcEENS_9allocatorIcEEE19__get_short_pointerB8ue170006Ev, symObjAddr: 0x3F78, symBinAddr: 0x10000792C, symSize: 0x28 }
  - { offsetInCU: 0x990E, offset: 0x990E, size: 0x8, addend: 0x0, symName: __ZNKSt3__117__compressed_pairINS_12basic_stringIcNS_11char_traitsIcEENS_9allocatorIcEEE5__repES5_E5firstB8ue170006Ev, symObjAddr: 0x3FA0, symBinAddr: 0x100007954, symSize: 0x24 }
  - { offsetInCU: 0x9933, offset: 0x9933, size: 0x8, addend: 0x0, symName: __ZNKSt3__122__compressed_pair_elemINS_12basic_stringIcNS_11char_traitsIcEENS_9allocatorIcEEE5__repELi0ELb0EE5__getB8ue170006Ev, symObjAddr: 0x3FC4, symBinAddr: 0x100007978, symSize: 0x14 }
  - { offsetInCU: 0x9958, offset: 0x9958, size: 0x8, addend: 0x0, symName: __ZNSt3__114pointer_traitsIPKcE10pointer_toB8ue170006ERS1_, symObjAddr: 0x3FD8, symBinAddr: 0x10000798C, symSize: 0x14 }
  - { offsetInCU: 0x997B, offset: 0x997B, size: 0x8, addend: 0x0, symName: __ZNSt3__119ostreambuf_iteratorIcNS_11char_traitsIcEEEC2B8ue170006ERNS_13basic_ostreamIcS2_EE, symObjAddr: 0x3FEC, symBinAddr: 0x1000079A0, symSize: 0x68 }
  - { offsetInCU: 0x99B1, offset: 0x99B1, size: 0x8, addend: 0x0, symName: __ZNKSt3__19basic_iosIcNS_11char_traitsIcEEE5rdbufB8ue170006Ev, symObjAddr: 0x4054, symBinAddr: 0x100007A08, symSize: 0x24 }
  - { offsetInCU: 0x99D8, offset: 0x99D8, size: 0x8, addend: 0x0, symName: __ZNKSt3__18ios_base5rdbufB8ue170006Ev, symObjAddr: 0x4078, symBinAddr: 0x100007A2C, symSize: 0x18 }
  - { offsetInCU: 0x99FD, offset: 0x99FD, size: 0x8, addend: 0x0, symName: __ZNSt3__111char_traitsIcE11eq_int_typeB8ue170006Eii, symObjAddr: 0x4090, symBinAddr: 0x100007A44, symSize: 0x28 }
  - { offsetInCU: 0x9A30, offset: 0x9A30, size: 0x8, addend: 0x0, symName: __ZNSt3__111char_traitsIcE3eofB8ue170006Ev, symObjAddr: 0x40B8, symBinAddr: 0x100007A6C, symSize: 0x8 }
  - { offsetInCU: 0x9A44, offset: 0x9A44, size: 0x8, addend: 0x0, symName: __ZNKSt3__19basic_iosIcNS_11char_traitsIcEEE5widenB8ue170006Ec, symObjAddr: 0x40C0, symBinAddr: 0x100007A74, symSize: 0x8C }
  - { offsetInCU: 0x9AB1, offset: 0x9AB1, size: 0x8, addend: 0x0, symName: __ZNKSt3__15ctypeIcE5widenB8ue170006Ec, symObjAddr: 0x4178, symBinAddr: 0x100007B2C, symSize: 0x38 }
  - { offsetInCU: 0x9AE5, offset: 0x9AE5, size: 0x8, addend: 0x0, symName: __ZNSt3__18ios_base8setstateB8ue170006Ej, symObjAddr: 0x41B0, symBinAddr: 0x100007B64, symSize: 0x34 }
...
